
Regler.elf:     file format elf32-avr32

Sections:
Idx Name          Size      VMA       LMA       File off  Algn
  0 .reset        00002004  80000000  80000000  00000400  2**2
                  CONTENTS, ALLOC, LOAD, READONLY, CODE
  1 .text         00000084  80002004  80002004  00002404  2**2
                  CONTENTS, ALLOC, LOAD, READONLY, CODE
  2 .exception    00000200  80002200  80002200  00002600  2**9
                  CONTENTS, ALLOC, LOAD, READONLY, CODE
  3 .rodata       000000b0  80002400  80002400  00002800  2**2
                  CONTENTS, ALLOC, LOAD, READONLY, DATA
  4 .balign       00000004  00000004  800024b0  00002c04  2**0
                  ALLOC
  5 .bss          000000d0  00000008  800024b0  00002c08  2**2
                  ALLOC
  6 .comment      00000030  00000000  00000000  000028b0  2**0
                  CONTENTS, READONLY
  7 .debug_aranges 000000e0  00000000  00000000  000028e0  2**3
                  CONTENTS, READONLY, DEBUGGING
  8 .debug_pubnames 0000009e  00000000  00000000  000029c0  2**0
                  CONTENTS, READONLY, DEBUGGING
  9 .debug_info   000008fc  00000000  00000000  00002a5e  2**0
                  CONTENTS, READONLY, DEBUGGING
 10 .debug_abbrev 000002c6  00000000  00000000  0000335a  2**0
                  CONTENTS, READONLY, DEBUGGING
 11 .debug_line   000016ee  00000000  00000000  00003620  2**0
                  CONTENTS, READONLY, DEBUGGING
 12 .debug_frame  000000ac  00000000  00000000  00004d10  2**2
                  CONTENTS, READONLY, DEBUGGING
 13 .debug_str    000004ba  00000000  00000000  00004dbc  2**0
                  CONTENTS, READONLY, DEBUGGING
 14 .debug_loc    000000f2  00000000  00000000  00005276  2**0
                  CONTENTS, READONLY, DEBUGGING
 15 .debug_macinfo 00256327  00000000  00000000  00005368  2**0
                  CONTENTS, READONLY, DEBUGGING
 16 .stack        00001000  00003000  00003000  00000400  2**0
                  ALLOC
 17 .debug_ranges 00000098  00000000  00000000  0025b690  2**3
                  CONTENTS, READONLY, DEBUGGING

Disassembly of section .reset:

80000000 <_trampoline>:

  .global _trampoline
  .type _trampoline, @function
_trampoline:
  // Jump to program start.
  rjmp    program_start
80000000:	e0 8f 10 00 	bral	80002000 <program_start>
	...

80002000 <program_start>:

  .org  PROGRAM_START_OFFSET
program_start:
  // Jump to the C runtime startup routine.
  lda.w   pc, _stext
80002000:	fe cf ff c4 	sub	pc,pc,-60

Disassembly of section .text:

80002004 <_get_interrupt_handler>:
80002004:	fe 78 10 00 	mov	r8,-61440
__int_handler _get_interrupt_handler(uint32_t int_level)
{
	/* ICR3 is mapped first, ICR0 last.
	Code in exception.S puts int_level in R12 which is used by the compiler
	to pass a single argument to a function. */
	uint32_t int_grp = AVR32_INTC.icr[AVR32_INTC_INT3 - int_level];
80002008:	e0 69 00 83 	mov	r9,131
8000200c:	f2 0c 01 0c 	sub	r12,r9,r12
80002010:	f0 0c 03 29 	ld.w	r9,r8[r12<<0x2]
	uint32_t int_req = AVR32_INTC.irr[int_grp];
80002014:	f2 ca ff c0 	sub	r10,r9,-64
80002018:	f0 0a 03 28 	ld.w	r8,r8[r10<<0x2]
	exception.S will provide the interrupt handler with a clean interrupt
	stack frame, with nothing more pushed onto the stack. The interrupt
	handler must manage the `rete' instruction, which can be done using
	pure assembly, inline assembly or the `__attribute__((__interrupt__))'
	C function attribute.*/
	return (int_req)
8000201c:	58 08       	cp.w	r8,0
8000201e:	c0 21       	brne	80002022 <_get_interrupt_handler+0x1e>
80002020:	5e fd       	retal	0
		? _int_handler_table[int_grp]._int_line_handler_table[32
80002022:	f0 08 12 00 	clz	r8,r8
80002026:	48 5a       	lddpc	r10,80002038 <_get_interrupt_handler+0x34>
80002028:	f4 09 00 39 	add	r9,r10,r9<<0x3
8000202c:	f0 08 11 1f 	rsub	r8,r8,31
80002030:	72 19       	ld.w	r9,r9[0x4]
	exception.S will provide the interrupt handler with a clean interrupt
	stack frame, with nothing more pushed onto the stack. The interrupt
	handler must manage the `rete' instruction, which can be done using
	pure assembly, inline assembly or the `__attribute__((__interrupt__))'
	C function attribute.*/
	return (int_req)
80002032:	f2 08 03 2c 	ld.w	r12,r9[r8<<0x2]
		? _int_handler_table[int_grp]._int_line_handler_table[32
			- clz(int_req) - 1]
		: NULL;
}
80002036:	5e fc       	retal	r12
80002038:	80 00       	ld.sh	r0,r0[0x0]
8000203a:	24 00       	sub	r0,64

8000203c <_stext>:

  .global _stext
  .type _stext, @function
_stext:
  // Set initial stack pointer.
  lda.w   sp, _estack
8000203c:	e0 6d 40 00 	mov	sp,16384

  // Set up EVBA so interrupts can be enabled.
  lda.w   r0, _evba
  mtsr    AVR32_EVBA, r0
80002040:	fe c0 fe 40 	sub	r0,pc,-448

  // Enable the exception processing.
  csrf    AVR32_SR_EM_OFFSET
80002044:	e3 b0 00 01 	mtsr	0x4,r0

  // Load initialized data having a global lifetime from the data LMA.
  lda.w   r0, _data
  lda.w   r1, _edata
80002048:	d5 53       	csrf	0x15
  cp      r0, r1
8000204a:	30 40       	mov	r0,4
  brhs    idata_load_loop_end
8000204c:	30 81       	mov	r1,8
  lda.w   r2, _data_lma
8000204e:	02 30       	cp.w	r0,r1
idata_load_loop:
  ld.d    r4, r2++
80002050:	c0 72       	brcc	8000205e <idata_load_loop_end>
  st.d    r0++, r4
80002052:	fe c2 fb a2 	sub	r2,pc,-1118

80002056 <idata_load_loop>:
  cp      r0, r1
  brlo    idata_load_loop
80002056:	a5 05       	ld.d	r4,r2++
idata_load_loop_end:

  // Clear uninitialized data having a global lifetime in the blank static storage section.
  lda.w   r0, __bss_start
80002058:	a1 24       	st.d	r0++,r4
  lda.w   r1, _end
8000205a:	02 30       	cp.w	r0,r1
  cp      r0, r1
8000205c:	cf d3       	brcs	80002056 <idata_load_loop>

8000205e <idata_load_loop_end>:
  brhs    udata_clear_loop_end
8000205e:	30 80       	mov	r0,8
  mov     r2, 0
80002060:	e0 61 00 d8 	mov	r1,216
  mov     r3, 0
udata_clear_loop:
  st.d    r0++, r2
80002064:	02 30       	cp.w	r0,r1
  cp      r0, r1
80002066:	c0 62       	brcc	80002072 <udata_clear_loop_end>
  brlo    udata_clear_loop
80002068:	30 02       	mov	r2,0
  // Safety: Set the default "return" @ to the exit routine address.
  lda.w   lr, exit
#endif

  // Start the show.
  lda.w   pc, main
8000206a:	30 03       	mov	r3,0

8000206c <udata_clear_loop>:
8000206c:	a1 22       	st.d	r0++,r2
8000206e:	02 30       	cp.w	r0,r1
80002070:	cf e3       	brcs	8000206c <udata_clear_loop>

80002072 <udata_clear_loop_end>:
80002072:	fe cf ff f6 	sub	pc,pc,-10
80002076:	d7 03       	nop

80002078 <board_init>:
80002078:	5e fc       	retal	r12
8000207a:	d7 03       	nop

8000207c <main>:
8000207c:	d4 01       	pushm	lr
8000207e:	f0 1f 00 02 	mcall	80002084 <main+0x8>
80002082:	d8 0a       	popm	pc,r12=0
80002084:	80 00       	ld.sh	r0,r0[0x0]
80002086:	20 78       	sub	r8,7

Disassembly of section .exception:

80002200 <_evba>:
_evba:

	.org  0x000
	// Unrecoverable Exception.
_handle_Unrecoverable_Exception:
	rjmp $
80002200:	c0 08       	rjmp	80002200 <_evba>
	...

80002204 <_handle_TLB_Multiple_Hit>:

	.org  0x004
	// TLB Multiple Hit.
_handle_TLB_Multiple_Hit:
	rjmp $
80002204:	c0 08       	rjmp	80002204 <_handle_TLB_Multiple_Hit>
	...

80002208 <_handle_Bus_Error_Data_Fetch>:

	.org  0x008
	// Bus Error Data Fetch.
_handle_Bus_Error_Data_Fetch:
	rjmp $
80002208:	c0 08       	rjmp	80002208 <_handle_Bus_Error_Data_Fetch>
	...

8000220c <_handle_Bus_Error_Instruction_Fetch>:

	.org  0x00C
	// Bus Error Instruction Fetch.
_handle_Bus_Error_Instruction_Fetch:
	rjmp $
8000220c:	c0 08       	rjmp	8000220c <_handle_Bus_Error_Instruction_Fetch>
	...

80002210 <_handle_NMI>:

	.org  0x010
	// NMI.
_handle_NMI:
	rjmp $
80002210:	c0 08       	rjmp	80002210 <_handle_NMI>
	...

80002214 <_handle_Instruction_Address>:

	.org  0x014
	// Instruction Address.
_handle_Instruction_Address:
	rjmp $
80002214:	c0 08       	rjmp	80002214 <_handle_Instruction_Address>
	...

80002218 <_handle_ITLB_Protection>:

	.org  0x018
	// ITLB Protection.
_handle_ITLB_Protection:
	rjmp $
80002218:	c0 08       	rjmp	80002218 <_handle_ITLB_Protection>
	...

8000221c <_handle_Breakpoint>:

	.org  0x01C
	// Breakpoint.
_handle_Breakpoint:
	rjmp $
8000221c:	c0 08       	rjmp	8000221c <_handle_Breakpoint>
	...

80002220 <_handle_Illegal_Opcode>:

	.org  0x020
	// Illegal Opcode.
_handle_Illegal_Opcode:
	rjmp $
80002220:	c0 08       	rjmp	80002220 <_handle_Illegal_Opcode>
	...

80002224 <_handle_Unimplemented_Instruction>:

	.org  0x024
	// Unimplemented Instruction.
_handle_Unimplemented_Instruction:
	rjmp $
80002224:	c0 08       	rjmp	80002224 <_handle_Unimplemented_Instruction>
	...

80002228 <_handle_Privilege_Violation>:

	.org  0x028
	// Privilege Violation.
_handle_Privilege_Violation:
	rjmp $
80002228:	c0 08       	rjmp	80002228 <_handle_Privilege_Violation>
	...

8000222c <_handle_Floating_Point>:

	.org  0x02C
	// Floating-Point: UNUSED IN AVR32UC and AVR32AP.
_handle_Floating_Point:
	rjmp $
8000222c:	c0 08       	rjmp	8000222c <_handle_Floating_Point>
	...

80002230 <_handle_Coprocessor_Absent>:

	.org  0x030
	// Coprocessor Absent: UNUSED IN AVR32UC.
_handle_Coprocessor_Absent:
	rjmp $
80002230:	c0 08       	rjmp	80002230 <_handle_Coprocessor_Absent>
	...

80002234 <_handle_Data_Address_Read>:

	.org  0x034
	// Data Address (Read).
_handle_Data_Address_Read:
	rjmp $
80002234:	c0 08       	rjmp	80002234 <_handle_Data_Address_Read>
	...

80002238 <_handle_Data_Address_Write>:

	.org  0x038
	// Data Address (Write).
_handle_Data_Address_Write:
	rjmp $
80002238:	c0 08       	rjmp	80002238 <_handle_Data_Address_Write>
	...

8000223c <_handle_DTLB_Protection_Read>:

	.org  0x03C
	// DTLB Protection (Read).
_handle_DTLB_Protection_Read:
	rjmp $
8000223c:	c0 08       	rjmp	8000223c <_handle_DTLB_Protection_Read>
	...

80002240 <_handle_DTLB_Protection_Write>:

	.org  0x040
	// DTLB Protection (Write).
_handle_DTLB_Protection_Write:
	rjmp $
80002240:	c0 08       	rjmp	80002240 <_handle_DTLB_Protection_Write>
	...

80002244 <_handle_DTLB_Modified>:

	.org  0x044
	// DTLB Modified: UNUSED IN AVR32UC.
_handle_DTLB_Modified:
	rjmp $
80002244:	c0 08       	rjmp	80002244 <_handle_DTLB_Modified>
	...

80002250 <_handle_ITLB_Miss>:

	.org  0x050
	// ITLB Miss.
_handle_ITLB_Miss:
	rjmp $
80002250:	c0 08       	rjmp	80002250 <_handle_ITLB_Miss>
	...

80002260 <_handle_DTLB_Miss_Read>:

	.org  0x060
	// DTLB Miss (Read).
_handle_DTLB_Miss_Read:
	rjmp $
80002260:	c0 08       	rjmp	80002260 <_handle_DTLB_Miss_Read>
	...

80002270 <_handle_DTLB_Miss_Write>:

	.org  0x070
	// DTLB Miss (Write).
_handle_DTLB_Miss_Write:
	rjmp $
80002270:	c0 08       	rjmp	80002270 <_handle_DTLB_Miss_Write>
	...

80002300 <_handle_Supervisor_Call>:

	.org  0x100
	// Supervisor Call.
_handle_Supervisor_Call:
	rjmp $
80002300:	c0 08       	rjmp	80002300 <_handle_Supervisor_Call>
80002302:	d7 03       	nop

80002304 <_int0>:
	 * RSR_INTx by the CPU upon interrupt entry. No other register is saved
	 * by hardware.
	 */
	pushm   r8-r12, lr
#endif
	// Pass the int_level parameter to the _get_interrupt_handler function.
80002304:	30 0c       	mov	r12,0
80002306:	c7 fe       	rcall	80002004 <_get_interrupt_handler>
80002308:	58 0c       	cp.w	r12,0
8000230a:	f8 0f 17 10 	movne	pc,r12
8000230e:	d6 03       	rete

80002310 <_int1>:
	popm    r8-r12, lr
#endif
	/*
	 * If this was a spurious interrupt (R12 == NULL), return from event
	 * handler.
	 */
80002310:	30 1c       	mov	r12,1
	 * RSR_INTx by the CPU upon interrupt entry. No other register is saved
	 * by hardware.
	 */
	pushm   r8-r12, lr
#endif
	// Pass the int_level parameter to the _get_interrupt_handler function.
80002312:	c7 9e       	rcall	80002004 <_get_interrupt_handler>
80002314:	58 0c       	cp.w	r12,0
80002316:	f8 0f 17 10 	movne	pc,r12
8000231a:	d6 03       	rete

8000231c <_int2>:
8000231c:	30 2c       	mov	r12,2
	popm    r8-r12, lr
#endif
	/*
	 * If this was a spurious interrupt (R12 == NULL), return from event
	 * handler.
	 */
8000231e:	c7 3e       	rcall	80002004 <_get_interrupt_handler>
	 * RSR_INTx by the CPU upon interrupt entry. No other register is saved
	 * by hardware.
	 */
	pushm   r8-r12, lr
#endif
	// Pass the int_level parameter to the _get_interrupt_handler function.
80002320:	58 0c       	cp.w	r12,0
80002322:	f8 0f 17 10 	movne	pc,r12
80002326:	d6 03       	rete

80002328 <_int3>:
80002328:	30 3c       	mov	r12,3
8000232a:	c6 de       	rcall	80002004 <_get_interrupt_handler>
	popm    r8-r12, lr
#endif
	/*
	 * If this was a spurious interrupt (R12 == NULL), return from event
	 * handler.
	 */
8000232c:	58 0c       	cp.w	r12,0
	 * RSR_INTx by the CPU upon interrupt entry. No other register is saved
	 * by hardware.
	 */
	pushm   r8-r12, lr
#endif
	// Pass the int_level parameter to the _get_interrupt_handler function.
8000232e:	f8 0f 17 10 	movne	pc,r12
80002332:	d6 03       	rete
80002334:	d7 03       	nop
80002336:	d7 03       	nop
80002338:	d7 03       	nop
	popm    r8-r12, lr
#endif
	/*
	 * If this was a spurious interrupt (R12 == NULL), return from event
	 * handler.
	 */
8000233a:	d7 03       	nop
8000233c:	d7 03       	nop
8000233e:	d7 03       	nop
80002340:	d7 03       	nop
80002342:	d7 03       	nop
80002344:	d7 03       	nop
80002346:	d7 03       	nop
80002348:	d7 03       	nop
8000234a:	d7 03       	nop
8000234c:	d7 03       	nop
8000234e:	d7 03       	nop
80002350:	d7 03       	nop
80002352:	d7 03       	nop
80002354:	d7 03       	nop
80002356:	d7 03       	nop
80002358:	d7 03       	nop
8000235a:	d7 03       	nop
8000235c:	d7 03       	nop
8000235e:	d7 03       	nop
80002360:	d7 03       	nop
80002362:	d7 03       	nop
80002364:	d7 03       	nop
80002366:	d7 03       	nop
80002368:	d7 03       	nop
8000236a:	d7 03       	nop
8000236c:	d7 03       	nop
8000236e:	d7 03       	nop
80002370:	d7 03       	nop
80002372:	d7 03       	nop
80002374:	d7 03       	nop
80002376:	d7 03       	nop
80002378:	d7 03       	nop
8000237a:	d7 03       	nop
8000237c:	d7 03       	nop
8000237e:	d7 03       	nop
80002380:	d7 03       	nop
80002382:	d7 03       	nop
80002384:	d7 03       	nop
80002386:	d7 03       	nop
80002388:	d7 03       	nop
8000238a:	d7 03       	nop
8000238c:	d7 03       	nop
8000238e:	d7 03       	nop
80002390:	d7 03       	nop
80002392:	d7 03       	nop
80002394:	d7 03       	nop
80002396:	d7 03       	nop
80002398:	d7 03       	nop
8000239a:	d7 03       	nop
8000239c:	d7 03       	nop
8000239e:	d7 03       	nop
800023a0:	d7 03       	nop
800023a2:	d7 03       	nop
800023a4:	d7 03       	nop
800023a6:	d7 03       	nop
800023a8:	d7 03       	nop
800023aa:	d7 03       	nop
800023ac:	d7 03       	nop
800023ae:	d7 03       	nop
800023b0:	d7 03       	nop
800023b2:	d7 03       	nop
800023b4:	d7 03       	nop
800023b6:	d7 03       	nop
800023b8:	d7 03       	nop
800023ba:	d7 03       	nop
800023bc:	d7 03       	nop
800023be:	d7 03       	nop
800023c0:	d7 03       	nop
800023c2:	d7 03       	nop
800023c4:	d7 03       	nop
800023c6:	d7 03       	nop
800023c8:	d7 03       	nop
800023ca:	d7 03       	nop
800023cc:	d7 03       	nop
800023ce:	d7 03       	nop
800023d0:	d7 03       	nop
800023d2:	d7 03       	nop
800023d4:	d7 03       	nop
800023d6:	d7 03       	nop
800023d8:	d7 03       	nop
800023da:	d7 03       	nop
800023dc:	d7 03       	nop
800023de:	d7 03       	nop
800023e0:	d7 03       	nop
800023e2:	d7 03       	nop
800023e4:	d7 03       	nop
800023e6:	d7 03       	nop
800023e8:	d7 03       	nop
800023ea:	d7 03       	nop
800023ec:	d7 03       	nop
800023ee:	d7 03       	nop
800023f0:	d7 03       	nop
800023f2:	d7 03       	nop
800023f4:	d7 03       	nop
800023f6:	d7 03       	nop
800023f8:	d7 03       	nop
800023fa:	d7 03       	nop
800023fc:	d7 03       	nop
800023fe:	d7 03       	nop
