
Regler_1.elf:     file format elf32-avr32

Sections:
Idx Name          Size      VMA       LMA       File off  Algn
  0 .reset        00002004  80000000  80000000  00000400  2**2
                  CONTENTS, ALLOC, LOAD, READONLY, CODE
  1 .rela.got     00000000  80002004  80002004  00002404  2**2
                  CONTENTS, ALLOC, LOAD, READONLY, DATA
  2 .text         00000238  80002004  80002004  00002404  2**2
                  CONTENTS, ALLOC, LOAD, READONLY, CODE
  3 .exception    00000200  80002400  80002400  00002800  2**9
                  CONTENTS, ALLOC, LOAD, READONLY, CODE
  4 .rodata       000000b0  80002600  80002600  00002a00  2**2
                  CONTENTS, ALLOC, LOAD, READONLY, DATA
  5 .data         00000004  00000004  800026b0  00002c04  2**2
                  CONTENTS, ALLOC, LOAD, DATA
  6 .bss          000000d0  00000008  800026b4  00002c08  2**2
                  ALLOC
  7 .comment      00000030  00000000  00000000  00002c08  2**0
                  CONTENTS, READONLY
  8 .debug_frame  00000910  00000000  00000000  00002c38  2**2
                  CONTENTS, READONLY, DEBUGGING
  9 .stack        00001000  00003000  00003000  00000400  2**0
                  ALLOC

Disassembly of section .reset:

80000000 <_trampoline>:
80000000:	e0 8f 10 00 	bral	80002000 <program_start>
	...

80002000 <program_start>:
80002000:	fe cf fe 30 	sub	pc,pc,-464

Disassembly of section .text:

80002004 <flashcdw_default_wait_until_ready>:
80002004:	fe 69 14 00 	mov	r9,-125952
80002008:	30 08       	mov	r8,0
8000200a:	72 2a       	ld.w	r10,r9[0x8]
8000200c:	f5 da c0 01 	bfextu	r10,r10,0x0,0x1
80002010:	f0 0a 18 00 	cp.b	r10,r8
80002014:	cf b0       	breq	8000200a <flashcdw_default_wait_until_ready+0x6>
80002016:	5e fc       	retal	r12

80002018 <flashcdw_issue_command>:
80002018:	d4 21       	pushm	r4-r7,lr
8000201a:	30 48       	mov	r8,4
8000201c:	18 97       	mov	r7,r12
8000201e:	70 08       	ld.w	r8,r8[0x0]
80002020:	16 96       	mov	r6,r11
80002022:	5d 18       	icall	r8
80002024:	fe 68 14 00 	mov	r8,-125952
80002028:	70 18       	ld.w	r8,r8[0x4]
8000202a:	f1 d7 d0 06 	bfins	r8,r7,0x0,0x6
8000202e:	58 06       	cp.w	r6,0
80002030:	c0 35       	brlt	80002036 <flashcdw_issue_command+0x1e>
80002032:	f1 d6 d1 10 	bfins	r8,r6,0x8,0x10
80002036:	fe 69 14 00 	mov	r9,-125952
8000203a:	3a 5a       	mov	r10,-91
8000203c:	f1 da d3 08 	bfins	r8,r10,0x18,0x8
80002040:	93 18       	st.w	r9[0x4],r8
80002042:	72 28       	ld.w	r8,r9[0x8]
80002044:	30 89       	mov	r9,8
80002046:	e2 18 00 0c 	andl	r8,0xc,COH
8000204a:	93 08       	st.w	r9[0x0],r8
8000204c:	30 48       	mov	r8,4
8000204e:	70 08       	ld.w	r8,r8[0x0]
80002050:	5d 18       	icall	r8
80002052:	d8 22       	popm	r4-r7,pc

80002054 <flashcdw_set_flash_waitstate_and_readmode>:
80002054:	d4 01       	pushm	lr
80002056:	e0 68 e1 c0 	mov	r8,57792
8000205a:	ea 18 00 e4 	orh	r8,0xe4
8000205e:	10 3c       	cp.w	r12,r8
80002060:	e0 88 00 18 	brls	80002090 <flashcdw_set_flash_waitstate_and_readmode+0x3c>
80002064:	e0 68 c3 80 	mov	r8,50048
80002068:	ea 18 01 c9 	orh	r8,0x1c9
8000206c:	10 3c       	cp.w	r12,r8
8000206e:	e0 8b 00 07 	brhi	8000207c <flashcdw_set_flash_waitstate_and_readmode+0x28>
80002072:	fe 68 14 00 	mov	r8,-125952
80002076:	30 1a       	mov	r10,1
80002078:	70 09       	ld.w	r9,r8[0x0]
8000207a:	c0 f8       	rjmp	80002098 <flashcdw_set_flash_waitstate_and_readmode+0x44>
8000207c:	fe 68 14 00 	mov	r8,-125952
80002080:	30 1a       	mov	r10,1
80002082:	70 09       	ld.w	r9,r8[0x0]
80002084:	3f fb       	mov	r11,-1
80002086:	f3 da d0 c1 	bfins	r9,r10,0x6,0x1
8000208a:	31 0c       	mov	r12,16
8000208c:	91 09       	st.w	r8[0x0],r9
8000208e:	c0 a8       	rjmp	800020a2 <flashcdw_set_flash_waitstate_and_readmode+0x4e>
80002090:	fe 68 14 00 	mov	r8,-125952
80002094:	30 0a       	mov	r10,0
80002096:	70 09       	ld.w	r9,r8[0x0]
80002098:	f3 da d0 c1 	bfins	r9,r10,0x6,0x1
8000209c:	3f fb       	mov	r11,-1
8000209e:	91 09       	st.w	r8[0x0],r9
800020a0:	31 1c       	mov	r12,17
800020a2:	cb bf       	rcall	80002018 <flashcdw_issue_command>
800020a4:	d8 02       	popm	pc
800020a6:	d7 03       	nop

800020a8 <osc_priv_enable_rc120m>:
800020a8:	e1 b8 00 00 	mfsr	r8,0x0
800020ac:	d3 03       	ssrf	0x10
800020ae:	fe 79 58 00 	mov	r9,-43008
800020b2:	34 4a       	mov	r10,68
800020b4:	ea 1a aa 00 	orh	r10,0xaa00
800020b8:	93 6a       	st.w	r9[0x18],r10
800020ba:	30 1a       	mov	r10,1
800020bc:	f3 4a 00 44 	st.w	r9[68],r10
800020c0:	ed b8 00 10 	bld	r8,0x10
800020c4:	c0 20       	breq	800020c8 <osc_priv_enable_rc120m+0x20>
800020c6:	d5 03       	csrf	0x10
800020c8:	5e fc       	retal	r12

800020ca <sysclk_set_source>:
800020ca:	e1 b8 00 00 	mfsr	r8,0x0
800020ce:	d3 03       	ssrf	0x10
800020d0:	fe 79 14 00 	mov	r9,-60416
800020d4:	fc 1a aa 00 	movh	r10,0xaa00
800020d8:	f3 4a 00 58 	st.w	r9[88],r10
800020dc:	93 0c       	st.w	r9[0x0],r12
800020de:	ed b8 00 10 	bld	r8,0x10
800020e2:	c0 20       	breq	800020e6 <sysclk_set_source+0x1c>
800020e4:	d5 03       	csrf	0x10
800020e6:	5e fc       	retal	r12

800020e8 <sysclk_set_prescalers>:
800020e8:	d4 01       	pushm	lr
800020ea:	58 0c       	cp.w	r12,0
800020ec:	c0 30       	breq	800020f2 <sysclk_set_prescalers+0xa>
800020ee:	20 1c       	sub	r12,1
800020f0:	a7 bc       	sbr	r12,0x7
800020f2:	58 0b       	cp.w	r11,0
800020f4:	c0 30       	breq	800020fa <sysclk_set_prescalers+0x12>
800020f6:	20 1b       	sub	r11,1
800020f8:	a7 bb       	sbr	r11,0x7
800020fa:	58 0a       	cp.w	r10,0
800020fc:	c0 30       	breq	80002102 <sysclk_set_prescalers+0x1a>
800020fe:	20 1a       	sub	r10,1
80002100:	a7 ba       	sbr	r10,0x7
80002102:	e1 b9 00 00 	mfsr	r9,0x0
80002106:	d3 03       	ssrf	0x10
80002108:	fe 78 14 00 	mov	r8,-60416
8000210c:	30 4e       	mov	lr,4
8000210e:	ea 1e aa 00 	orh	lr,0xaa00
80002112:	f1 4e 00 58 	st.w	r8[88],lr
80002116:	91 1c       	st.w	r8[0x4],r12
80002118:	30 cc       	mov	r12,12
8000211a:	ea 1c aa 00 	orh	r12,0xaa00
8000211e:	f1 4c 00 58 	st.w	r8[88],r12
80002122:	91 3b       	st.w	r8[0xc],r11
80002124:	31 0b       	mov	r11,16
80002126:	ea 1b aa 00 	orh	r11,0xaa00
8000212a:	f1 4b 00 58 	st.w	r8[88],r11
8000212e:	91 4a       	st.w	r8[0x10],r10
80002130:	ed b9 00 10 	bld	r9,0x10
80002134:	c0 20       	breq	80002138 <sysclk_set_prescalers+0x50>
80002136:	d5 03       	csrf	0x10
80002138:	d8 02       	popm	pc
8000213a:	d7 03       	nop

8000213c <sysclk_init>:
8000213c:	d4 01       	pushm	lr
8000213e:	30 2a       	mov	r10,2
80002140:	14 9b       	mov	r11,r10
80002142:	14 9c       	mov	r12,r10
80002144:	cd 2f       	rcall	800020e8 <sysclk_set_prescalers>
80002146:	cb 1f       	rcall	800020a8 <osc_priv_enable_rc120m>
80002148:	fe 78 58 00 	mov	r8,-43008
8000214c:	71 19       	ld.w	r9,r8[0x44]
8000214e:	ed b9 00 00 	bld	r9,0x0
80002152:	cf d1       	brne	8000214c <sysclk_init+0x10>
80002154:	e0 6c c3 80 	mov	r12,50048
80002158:	ea 1c 01 c9 	orh	r12,0x1c9
8000215c:	c7 cf       	rcall	80002054 <flashcdw_set_flash_waitstate_and_readmode>
8000215e:	30 4c       	mov	r12,4
80002160:	cb 5f       	rcall	800020ca <sysclk_set_source>
80002162:	d8 02       	popm	pc

80002164 <sysclk_priv_enable_module>:
80002164:	d4 01       	pushm	lr
80002166:	e1 b8 00 00 	mfsr	r8,0x0
8000216a:	d3 03       	ssrf	0x10
8000216c:	fe 7a 14 00 	mov	r10,-60416
80002170:	a3 6c       	lsl	r12,0x2
80002172:	32 0e       	mov	lr,32
80002174:	ea 1e aa 00 	orh	lr,0xaa00
80002178:	f8 0e 00 0e 	add	lr,r12,lr
8000217c:	e0 2c eb e0 	sub	r12,60384
80002180:	78 09       	ld.w	r9,r12[0x0]
80002182:	f5 4e 00 58 	st.w	r10[88],lr
80002186:	30 1a       	mov	r10,1
80002188:	f4 0b 09 4b 	lsl	r11,r10,r11
8000218c:	12 4b       	or	r11,r9
8000218e:	99 0b       	st.w	r12[0x0],r11
80002190:	ed b8 00 10 	bld	r8,0x10
80002194:	c0 20       	breq	80002198 <sysclk_priv_enable_module+0x34>
80002196:	d5 03       	csrf	0x10
80002198:	d8 02       	popm	pc
8000219a:	d7 03       	nop

8000219c <_get_interrupt_handler>:
8000219c:	e0 68 00 83 	mov	r8,131
800021a0:	fe 79 10 00 	mov	r9,-61440
800021a4:	f0 0c 01 0c 	sub	r12,r8,r12
800021a8:	f2 0c 03 28 	ld.w	r8,r9[r12<<0x2]
800021ac:	f0 ca ff c0 	sub	r10,r8,-64
800021b0:	f2 0a 03 2c 	ld.w	r12,r9[r10<<0x2]
800021b4:	58 0c       	cp.w	r12,0
800021b6:	5e 0c       	reteq	r12
800021b8:	fe c9 fb b8 	sub	r9,pc,-1096
800021bc:	f8 0c 12 00 	clz	r12,r12
800021c0:	f2 08 00 38 	add	r8,r9,r8<<0x3
800021c4:	f8 0c 11 1f 	rsub	r12,r12,31
800021c8:	70 18       	ld.w	r8,r8[0x4]
800021ca:	f0 0c 03 2c 	ld.w	r12,r8[r12<<0x2]
800021ce:	5e fc       	retal	r12

800021d0 <_stext>:
800021d0:	e0 6d 40 00 	mov	sp,16384
800021d4:	fe c0 fd d4 	sub	r0,pc,-556
800021d8:	e3 b0 00 01 	mtsr	0x4,r0
800021dc:	d5 53       	csrf	0x15
800021de:	30 40       	mov	r0,4
800021e0:	30 81       	mov	r1,8
800021e2:	02 30       	cp.w	r0,r1
800021e4:	c0 72       	brcc	800021f2 <idata_load_loop_end>
800021e6:	fe c2 fb 36 	sub	r2,pc,-1226

800021ea <idata_load_loop>:
800021ea:	a5 05       	ld.d	r4,r2++
800021ec:	a1 24       	st.d	r0++,r4
800021ee:	02 30       	cp.w	r0,r1
800021f0:	cf d3       	brcs	800021ea <idata_load_loop>

800021f2 <idata_load_loop_end>:
800021f2:	30 80       	mov	r0,8
800021f4:	e0 61 00 d8 	mov	r1,216
800021f8:	02 30       	cp.w	r0,r1
800021fa:	c0 62       	brcc	80002206 <udata_clear_loop_end>
800021fc:	30 02       	mov	r2,0
800021fe:	30 03       	mov	r3,0

80002200 <udata_clear_loop>:
80002200:	a1 22       	st.d	r0++,r2
80002202:	02 30       	cp.w	r0,r1
80002204:	cf e3       	brcs	80002200 <udata_clear_loop>

80002206 <udata_clear_loop_end>:
80002206:	fe cf ff e2 	sub	pc,pc,-30
8000220a:	d7 03       	nop

8000220c <board_init>:
8000220c:	d4 01       	pushm	lr
8000220e:	30 6b       	mov	r11,6
80002210:	30 2c       	mov	r12,2
80002212:	ca 9f       	rcall	80002164 <sysclk_priv_enable_module>
80002214:	fc 19 00 80 	movh	r9,0x80
80002218:	fe 78 28 00 	mov	r8,-55296
8000221c:	f1 49 00 44 	st.w	r8[68],r9
80002220:	d8 02       	popm	pc
80002222:	d7 03       	nop

80002224 <main>:
80002224:	d4 01       	pushm	lr
80002226:	c8 bf       	rcall	8000213c <sysclk_init>
80002228:	cf 2f       	rcall	8000220c <board_init>
8000222a:	fe 79 28 00 	mov	r9,-55296
8000222e:	fc 18 00 80 	movh	r8,0x80
80002232:	f3 48 00 58 	st.w	r9[88],r8
80002236:	f3 48 00 54 	st.w	r9[84],r8
8000223a:	cf cb       	rjmp	80002232 <main+0xe>

Disassembly of section .exception:

80002400 <_evba>:
80002400:	c0 08       	rjmp	80002400 <_evba>
	...

80002404 <_handle_TLB_Multiple_Hit>:
80002404:	c0 08       	rjmp	80002404 <_handle_TLB_Multiple_Hit>
	...

80002408 <_handle_Bus_Error_Data_Fetch>:
80002408:	c0 08       	rjmp	80002408 <_handle_Bus_Error_Data_Fetch>
	...

8000240c <_handle_Bus_Error_Instruction_Fetch>:
8000240c:	c0 08       	rjmp	8000240c <_handle_Bus_Error_Instruction_Fetch>
	...

80002410 <_handle_NMI>:
80002410:	c0 08       	rjmp	80002410 <_handle_NMI>
	...

80002414 <_handle_Instruction_Address>:
80002414:	c0 08       	rjmp	80002414 <_handle_Instruction_Address>
	...

80002418 <_handle_ITLB_Protection>:
80002418:	c0 08       	rjmp	80002418 <_handle_ITLB_Protection>
	...

8000241c <_handle_Breakpoint>:
8000241c:	c0 08       	rjmp	8000241c <_handle_Breakpoint>
	...

80002420 <_handle_Illegal_Opcode>:
80002420:	c0 08       	rjmp	80002420 <_handle_Illegal_Opcode>
	...

80002424 <_handle_Unimplemented_Instruction>:
80002424:	c0 08       	rjmp	80002424 <_handle_Unimplemented_Instruction>
	...

80002428 <_handle_Privilege_Violation>:
80002428:	c0 08       	rjmp	80002428 <_handle_Privilege_Violation>
	...

8000242c <_handle_Floating_Point>:
8000242c:	c0 08       	rjmp	8000242c <_handle_Floating_Point>
	...

80002430 <_handle_Coprocessor_Absent>:
80002430:	c0 08       	rjmp	80002430 <_handle_Coprocessor_Absent>
	...

80002434 <_handle_Data_Address_Read>:
80002434:	c0 08       	rjmp	80002434 <_handle_Data_Address_Read>
	...

80002438 <_handle_Data_Address_Write>:
80002438:	c0 08       	rjmp	80002438 <_handle_Data_Address_Write>
	...

8000243c <_handle_DTLB_Protection_Read>:
8000243c:	c0 08       	rjmp	8000243c <_handle_DTLB_Protection_Read>
	...

80002440 <_handle_DTLB_Protection_Write>:
80002440:	c0 08       	rjmp	80002440 <_handle_DTLB_Protection_Write>
	...

80002444 <_handle_DTLB_Modified>:
80002444:	c0 08       	rjmp	80002444 <_handle_DTLB_Modified>
	...

80002450 <_handle_ITLB_Miss>:
80002450:	c0 08       	rjmp	80002450 <_handle_ITLB_Miss>
	...

80002460 <_handle_DTLB_Miss_Read>:
80002460:	c0 08       	rjmp	80002460 <_handle_DTLB_Miss_Read>
	...

80002470 <_handle_DTLB_Miss_Write>:
80002470:	c0 08       	rjmp	80002470 <_handle_DTLB_Miss_Write>
	...

80002500 <_handle_Supervisor_Call>:
80002500:	c0 08       	rjmp	80002500 <_handle_Supervisor_Call>
80002502:	d7 03       	nop

80002504 <_int0>:
80002504:	30 0c       	mov	r12,0
80002506:	c4 be       	rcall	8000219c <_get_interrupt_handler>
80002508:	58 0c       	cp.w	r12,0
8000250a:	f8 0f 17 10 	movne	pc,r12
8000250e:	d6 03       	rete

80002510 <_int1>:
80002510:	30 1c       	mov	r12,1
80002512:	c4 5e       	rcall	8000219c <_get_interrupt_handler>
80002514:	58 0c       	cp.w	r12,0
80002516:	f8 0f 17 10 	movne	pc,r12
8000251a:	d6 03       	rete

8000251c <_int2>:
8000251c:	30 2c       	mov	r12,2
8000251e:	c3 fe       	rcall	8000219c <_get_interrupt_handler>
80002520:	58 0c       	cp.w	r12,0
80002522:	f8 0f 17 10 	movne	pc,r12
80002526:	d6 03       	rete

80002528 <_int3>:
80002528:	30 3c       	mov	r12,3
8000252a:	c3 9e       	rcall	8000219c <_get_interrupt_handler>
8000252c:	58 0c       	cp.w	r12,0
8000252e:	f8 0f 17 10 	movne	pc,r12
80002532:	d6 03       	rete
80002534:	d7 03       	nop
80002536:	d7 03       	nop
80002538:	d7 03       	nop
8000253a:	d7 03       	nop
8000253c:	d7 03       	nop
8000253e:	d7 03       	nop
80002540:	d7 03       	nop
80002542:	d7 03       	nop
80002544:	d7 03       	nop
80002546:	d7 03       	nop
80002548:	d7 03       	nop
8000254a:	d7 03       	nop
8000254c:	d7 03       	nop
8000254e:	d7 03       	nop
80002550:	d7 03       	nop
80002552:	d7 03       	nop
80002554:	d7 03       	nop
80002556:	d7 03       	nop
80002558:	d7 03       	nop
8000255a:	d7 03       	nop
8000255c:	d7 03       	nop
8000255e:	d7 03       	nop
80002560:	d7 03       	nop
80002562:	d7 03       	nop
80002564:	d7 03       	nop
80002566:	d7 03       	nop
80002568:	d7 03       	nop
8000256a:	d7 03       	nop
8000256c:	d7 03       	nop
8000256e:	d7 03       	nop
80002570:	d7 03       	nop
80002572:	d7 03       	nop
80002574:	d7 03       	nop
80002576:	d7 03       	nop
80002578:	d7 03       	nop
8000257a:	d7 03       	nop
8000257c:	d7 03       	nop
8000257e:	d7 03       	nop
80002580:	d7 03       	nop
80002582:	d7 03       	nop
80002584:	d7 03       	nop
80002586:	d7 03       	nop
80002588:	d7 03       	nop
8000258a:	d7 03       	nop
8000258c:	d7 03       	nop
8000258e:	d7 03       	nop
80002590:	d7 03       	nop
80002592:	d7 03       	nop
80002594:	d7 03       	nop
80002596:	d7 03       	nop
80002598:	d7 03       	nop
8000259a:	d7 03       	nop
8000259c:	d7 03       	nop
8000259e:	d7 03       	nop
800025a0:	d7 03       	nop
800025a2:	d7 03       	nop
800025a4:	d7 03       	nop
800025a6:	d7 03       	nop
800025a8:	d7 03       	nop
800025aa:	d7 03       	nop
800025ac:	d7 03       	nop
800025ae:	d7 03       	nop
800025b0:	d7 03       	nop
800025b2:	d7 03       	nop
800025b4:	d7 03       	nop
800025b6:	d7 03       	nop
800025b8:	d7 03       	nop
800025ba:	d7 03       	nop
800025bc:	d7 03       	nop
800025be:	d7 03       	nop
800025c0:	d7 03       	nop
800025c2:	d7 03       	nop
800025c4:	d7 03       	nop
800025c6:	d7 03       	nop
800025c8:	d7 03       	nop
800025ca:	d7 03       	nop
800025cc:	d7 03       	nop
800025ce:	d7 03       	nop
800025d0:	d7 03       	nop
800025d2:	d7 03       	nop
800025d4:	d7 03       	nop
800025d6:	d7 03       	nop
800025d8:	d7 03       	nop
800025da:	d7 03       	nop
800025dc:	d7 03       	nop
800025de:	d7 03       	nop
800025e0:	d7 03       	nop
800025e2:	d7 03       	nop
800025e4:	d7 03       	nop
800025e6:	d7 03       	nop
800025e8:	d7 03       	nop
800025ea:	d7 03       	nop
800025ec:	d7 03       	nop
800025ee:	d7 03       	nop
800025f0:	d7 03       	nop
800025f2:	d7 03       	nop
800025f4:	d7 03       	nop
800025f6:	d7 03       	nop
800025f8:	d7 03       	nop
800025fa:	d7 03       	nop
800025fc:	d7 03       	nop
800025fe:	d7 03       	nop
